; ModuleID = '58/84.c'
source_filename = "58/84.c"
target datalayout = "e-m:e-p270:32:32-p271:32:32-p272:64:64-i64:64-f80:128-n8:16:32:64-S128"
target triple = "x86_64-pc-linux-gnu"

@.str = private unnamed_addr constant [3 x i8] c"%d\00", align 1
@.str.1 = private unnamed_addr constant [3 x i8] c"1\0A\00", align 1
@.str.2 = private unnamed_addr constant [3 x i8] c"0\0A\00", align 1

; Function Attrs: noinline nounwind uwtable
define dso_local void @main() #0 {
  %1 = alloca i32, align 4
  %2 = alloca i32, align 4
  %3 = alloca i32, align 4
  %4 = alloca i32, align 4
  %5 = alloca [100 x i8], align 16
  store i32 0, i32* %4, align 4
  %6 = call i32 (i8*, ...) @__isoc99_scanf(i8* getelementptr inbounds ([3 x i8], [3 x i8]* @.str, i64 0, i64 0), i32* %2)
  %7 = call i32 @getchar()
  br label %8

8:                                                ; preds = %125, %0
  %9 = load i32, i32* %2, align 4
  %10 = add nsw i32 %9, -1
  store i32 %10, i32* %2, align 4
  %11 = icmp ne i32 %9, 0
  br i1 %11, label %12, label %126

12:                                               ; preds = %8
  %13 = getelementptr inbounds [100 x i8], [100 x i8]* %5, i64 0, i64 0
  %14 = call i32 (i8*, ...) bitcast (i32 (...)* @gets to i32 (i8*, ...)*)(i8* %13)
  %15 = getelementptr inbounds [100 x i8], [100 x i8]* %5, i64 0, i64 0
  %16 = call i64 @strlen(i8* %15) #3
  %17 = trunc i64 %16 to i32
  store i32 %17, i32* %3, align 4
  %18 = getelementptr inbounds [100 x i8], [100 x i8]* %5, i64 0, i64 0
  %19 = load i8, i8* %18, align 16
  %20 = sext i8 %19 to i32
  %21 = icmp sge i32 %20, 97
  br i1 %21, label %22, label %27

22:                                               ; preds = %12
  %23 = getelementptr inbounds [100 x i8], [100 x i8]* %5, i64 0, i64 0
  %24 = load i8, i8* %23, align 16
  %25 = sext i8 %24 to i32
  %26 = icmp sle i32 %25, 122
  br i1 %26, label %42, label %27

27:                                               ; preds = %22, %12
  %28 = getelementptr inbounds [100 x i8], [100 x i8]* %5, i64 0, i64 0
  %29 = load i8, i8* %28, align 16
  %30 = sext i8 %29 to i32
  %31 = icmp sge i32 %30, 65
  br i1 %31, label %32, label %37

32:                                               ; preds = %27
  %33 = getelementptr inbounds [100 x i8], [100 x i8]* %5, i64 0, i64 0
  %34 = load i8, i8* %33, align 16
  %35 = sext i8 %34 to i32
  %36 = icmp sle i32 %35, 90
  br i1 %36, label %42, label %37

37:                                               ; preds = %32, %27
  %38 = getelementptr inbounds [100 x i8], [100 x i8]* %5, i64 0, i64 0
  %39 = load i8, i8* %38, align 16
  %40 = sext i8 %39 to i32
  %41 = icmp eq i32 %40, 95
  br i1 %41, label %42, label %123

42:                                               ; preds = %37, %32, %22
  %43 = load i32, i32* %3, align 4
  %44 = icmp eq i32 %43, 1
  br i1 %44, label %45, label %47

45:                                               ; preds = %42
  %46 = call i32 (i8*, ...) @printf(i8* getelementptr inbounds ([3 x i8], [3 x i8]* @.str.1, i64 0, i64 0))
  br label %122

47:                                               ; preds = %42
  %48 = load i32, i32* %3, align 4
  %49 = icmp sgt i32 %48, 1
  br i1 %49, label %50, label %121

50:                                               ; preds = %47
  store i32 1, i32* %1, align 4
  br label %51

51:                                               ; preds = %108, %50
  %52 = load i32, i32* %1, align 4
  %53 = load i32, i32* %3, align 4
  %54 = icmp slt i32 %52, %53
  br i1 %54, label %55, label %111

55:                                               ; preds = %51
  %56 = load i32, i32* %1, align 4
  %57 = sext i32 %56 to i64
  %58 = getelementptr inbounds [100 x i8], [100 x i8]* %5, i64 0, i64 %57
  %59 = load i8, i8* %58, align 1
  %60 = sext i8 %59 to i32
  %61 = icmp sge i32 %60, 97
  br i1 %61, label %62, label %69

62:                                               ; preds = %55
  %63 = load i32, i32* %1, align 4
  %64 = sext i32 %63 to i64
  %65 = getelementptr inbounds [100 x i8], [100 x i8]* %5, i64 0, i64 %64
  %66 = load i8, i8* %65, align 1
  %67 = sext i8 %66 to i32
  %68 = icmp sle i32 %67, 122
  br i1 %68, label %104, label %69

69:                                               ; preds = %62, %55
  %70 = load i32, i32* %1, align 4
  %71 = sext i32 %70 to i64
  %72 = getelementptr inbounds [100 x i8], [100 x i8]* %5, i64 0, i64 %71
  %73 = load i8, i8* %72, align 1
  %74 = sext i8 %73 to i32
  %75 = icmp sge i32 %74, 65
  br i1 %75, label %76, label %83

76:                                               ; preds = %69
  %77 = load i32, i32* %1, align 4
  %78 = sext i32 %77 to i64
  %79 = getelementptr inbounds [100 x i8], [100 x i8]* %5, i64 0, i64 %78
  %80 = load i8, i8* %79, align 1
  %81 = sext i8 %80 to i32
  %82 = icmp sle i32 %81, 90
  br i1 %82, label %104, label %83

83:                                               ; preds = %76, %69
  %84 = load i32, i32* %1, align 4
  %85 = sext i32 %84 to i64
  %86 = getelementptr inbounds [100 x i8], [100 x i8]* %5, i64 0, i64 %85
  %87 = load i8, i8* %86, align 1
  %88 = sext i8 %87 to i32
  %89 = icmp eq i32 %88, 95
  br i1 %89, label %104, label %90

90:                                               ; preds = %83
  %91 = load i32, i32* %1, align 4
  %92 = sext i32 %91 to i64
  %93 = getelementptr inbounds [100 x i8], [100 x i8]* %5, i64 0, i64 %92
  %94 = load i8, i8* %93, align 1
  %95 = sext i8 %94 to i32
  %96 = icmp sge i32 %95, 48
  br i1 %96, label %97, label %107

97:                                               ; preds = %90
  %98 = load i32, i32* %1, align 4
  %99 = sext i32 %98 to i64
  %100 = getelementptr inbounds [100 x i8], [100 x i8]* %5, i64 0, i64 %99
  %101 = load i8, i8* %100, align 1
  %102 = sext i8 %101 to i32
  %103 = icmp sle i32 %102, 57
  br i1 %103, label %104, label %107

104:                                              ; preds = %97, %83, %76, %62
  %105 = load i32, i32* %4, align 4
  %106 = add nsw i32 %105, 1
  store i32 %106, i32* %4, align 4
  br label %107

107:                                              ; preds = %104, %97, %90
  br label %108

108:                                              ; preds = %107
  %109 = load i32, i32* %1, align 4
  %110 = add nsw i32 %109, 1
  store i32 %110, i32* %1, align 4
  br label %51

111:                                              ; preds = %51
  %112 = load i32, i32* %4, align 4
  %113 = load i32, i32* %3, align 4
  %114 = sub nsw i32 %113, 1
  %115 = icmp eq i32 %112, %114
  br i1 %115, label %116, label %118

116:                                              ; preds = %111
  %117 = call i32 (i8*, ...) @printf(i8* getelementptr inbounds ([3 x i8], [3 x i8]* @.str.1, i64 0, i64 0))
  br label %120

118:                                              ; preds = %111
  %119 = call i32 (i8*, ...) @printf(i8* getelementptr inbounds ([3 x i8], [3 x i8]* @.str.2, i64 0, i64 0))
  br label %120

120:                                              ; preds = %118, %116
  br label %121

121:                                              ; preds = %120, %47
  br label %122

122:                                              ; preds = %121, %45
  br label %125

123:                                              ; preds = %37
  %124 = call i32 (i8*, ...) @printf(i8* getelementptr inbounds ([3 x i8], [3 x i8]* @.str.2, i64 0, i64 0))
  br label %125

125:                                              ; preds = %123, %122
  store i32 0, i32* %4, align 4
  br label %8

126:                                              ; preds = %8
  ret void
}

declare dso_local i32 @__isoc99_scanf(i8*, ...) #1

declare dso_local i32 @getchar() #1

declare dso_local i32 @gets(...) #1

; Function Attrs: nounwind readonly
declare dso_local i64 @strlen(i8*) #2

declare dso_local i32 @printf(i8*, ...) #1


!llvm.module.flags = !{!0}
!llvm.ident = !{!1}

!0 = !{i32 1, !"wchar_size", i32 4}
!1 = !{!"clang version 10.0.0-4ubuntu1 "}
